target datalayout = "e-m:e-p270:32:32-p271:32:32-p272:64:64-i64:64-i128:128-f80:128-n8:16:32:64-S128"
target triple = "x86_64-unknown-linux-gnu"

%"class.icu_75::UnicodeString" = type { %"class.icu_75::Replaceable", %"union.icu_75::UnicodeString::StackBufferOrFields" }
%"class.icu_75::Replaceable" = type { %"class.icu_75::UObject" }
%"class.icu_75::UObject" = type { ptr }
%"union.icu_75::UnicodeString::StackBufferOrFields" = type { %struct.anon.0, [32 x i8] }
%struct.anon.0 = type { i16, i32, i32, ptr }
%"class.icu_75::UXMLParser" = type { %"class.icu_75::UObject", %"class.icu_75::RegexMatcher", %"class.icu_75::RegexMatcher", %"class.icu_75::RegexMatcher", %"class.icu_75::RegexMatcher", %"class.icu_75::RegexMatcher", %"class.icu_75::RegexMatcher", %"class.icu_75::RegexMatcher", %"class.icu_75::RegexMatcher", %"class.icu_75::RegexMatcher", %"class.icu_75::RegexMatcher", %"class.icu_75::RegexMatcher", %"class.icu_75::RegexMatcher", %"class.icu_75::RegexMatcher", %"class.icu_75::Hashtable", %"class.icu_75::UStack", i32, %"class.icu_75::UnicodeString" }
%"class.icu_75::RegexMatcher" = type { %"class.icu_75::UObject", ptr, ptr, ptr, ptr, ptr, i64, i32, i64, i64, i64, i64, i64, i64, i64, i64, i8, i8, i8, i64, i64, i64, i64, i8, i8, ptr, ptr, ptr, [8 x i64], i32, i32, i32, i32, ptr, ptr, ptr, ptr, i8, i8, i32, ptr, ptr }
%"class.icu_75::Hashtable" = type { ptr, %struct.UHashtable }
%struct.UHashtable = type { ptr, ptr, ptr, ptr, ptr, ptr, i32, i32, i32, i32, float, float, i8, i8 }
%"class.icu_75::UStack" = type { %"class.icu_75::UVector" }
%"class.icu_75::UVector" = type { %"class.icu_75::UObject", i32, i32, ptr, ptr, ptr }

@_ZTVN6icu_7510UXMLParserE = unnamed_addr constant { [5 x ptr] } { [5 x ptr] [ptr null, ptr @_ZTIN6icu_7510UXMLParserE, ptr @_ZN6icu_7510UXMLParserD1Ev, ptr @_ZN6icu_7510UXMLParserD0Ev, ptr @_ZNK6icu_7510UXMLParser17getDynamicClassIDEv] }, align 8

; Function Attrs: mustprogress nounwind uwtable
define linkonce_odr void @_ZN6icu_759HashtableD2Ev(ptr noundef nonnull align 8 dereferenceable(88) %this) unnamed_addr #0 comdat align 2 personality ptr @__gxx_personality_v0 {
entry:
  %this.addr = alloca ptr, align 8
  store ptr %this, ptr %this.addr, align 8
  %this1 = load ptr, ptr %this.addr, align 8
  %hash = getelementptr inbounds %"class.icu_75::Hashtable", ptr %this1, i32 0, i32 0
  %0 = load ptr, ptr %hash, align 8
  %cmp = icmp ne ptr %0, null
  br i1 %cmp, label %if.then, label %if.end

if.then:                                          ; preds = %entry
  %hash2 = getelementptr inbounds %"class.icu_75::Hashtable", ptr %this1, i32 0, i32 0
  %1 = load ptr, ptr %hash2, align 8
  invoke void @uhash_close_75(ptr noundef %1)
          to label %invoke.cont unwind label %terminate.lpad

invoke.cont:                                      ; preds = %if.then
  br label %if.end

if.end:                                           ; preds = %invoke.cont, %entry
  ret void

terminate.lpad:                                   ; preds = %if.then
  %2 = landingpad { ptr, i32 }
          catch ptr null
  %3 = extractvalue { ptr, i32 } %2, 0
  call void @__clang_call_terminate(ptr %3) #7
  unreachable
}

; Function Attrs: mustprogress nounwind uwtable
define void @_ZN6icu_7510UXMLParserD2Ev(ptr noundef nonnull align 8 dereferenceable(4576) %this) unnamed_addr #0 align 2 {
entry:
  %this.addr = alloca ptr, align 8
  store ptr %this, ptr %this.addr, align 8
  %this1 = load ptr, ptr %this.addr, align 8
  store ptr getelementptr inbounds ({ [5 x ptr] }, ptr @_ZTVN6icu_7510UXMLParserE, i32 0, i32 0, i32 2), ptr %this1, align 8
  %fOneLF = getelementptr inbounds %"class.icu_75::UXMLParser", ptr %this1, i32 0, i32 17
  call void @_ZN6icu_7513UnicodeStringD1Ev(ptr noundef nonnull align 8 dereferenceable(64) %fOneLF) #6
  %fElementStack = getelementptr inbounds %"class.icu_75::UXMLParser", ptr %this1, i32 0, i32 15
  call void @_ZN6icu_756UStackD1Ev(ptr noundef nonnull align 8 dereferenceable(40) %fElementStack) #6
  %fNames = getelementptr inbounds %"class.icu_75::UXMLParser", ptr %this1, i32 0, i32 14
  call void @_ZN6icu_759HashtableD2Ev(ptr noundef nonnull align 8 dereferenceable(88) %fNames) #6
  %mAmps = getelementptr inbounds %"class.icu_75::UXMLParser", ptr %this1, i32 0, i32 13
  call void @_ZN6icu_7512RegexMatcherD1Ev(ptr noundef nonnull align 8 dereferenceable(336) %mAmps) #6
  %mNewLineNormalizer = getelementptr inbounds %"class.icu_75::UXMLParser", ptr %this1, i32 0, i32 12
  call void @_ZN6icu_7512RegexMatcherD1Ev(ptr noundef nonnull align 8 dereferenceable(336) %mNewLineNormalizer) #6
  %mAttrNormalizer = getelementptr inbounds %"class.icu_75::UXMLParser", ptr %this1, i32 0, i32 11
  call void @_ZN6icu_7512RegexMatcherD1Ev(ptr noundef nonnull align 8 dereferenceable(336) %mAttrNormalizer) #6
  %mAttrValue = getelementptr inbounds %"class.icu_75::UXMLParser", ptr %this1, i32 0, i32 10
  call void @_ZN6icu_7512RegexMatcherD1Ev(ptr noundef nonnull align 8 dereferenceable(336) %mAttrValue) #6
  %mXMLCharData = getelementptr inbounds %"class.icu_75::UXMLParser", ptr %this1, i32 0, i32 9
  call void @_ZN6icu_7512RegexMatcherD1Ev(ptr noundef nonnull align 8 dereferenceable(336) %mXMLCharData) #6
  %mXMLElemEmpty = getelementptr inbounds %"class.icu_75::UXMLParser", ptr %this1, i32 0, i32 8
  call void @_ZN6icu_7512RegexMatcherD1Ev(ptr noundef nonnull align 8 dereferenceable(336) %mXMLElemEmpty) #6
  %mXMLElemEnd = getelementptr inbounds %"class.icu_75::UXMLParser", ptr %this1, i32 0, i32 7
  call void @_ZN6icu_7512RegexMatcherD1Ev(ptr noundef nonnull align 8 dereferenceable(336) %mXMLElemEnd) #6
  %mXMLElemStart = getelementptr inbounds %"class.icu_75::UXMLParser", ptr %this1, i32 0, i32 6
  call void @_ZN6icu_7512RegexMatcherD1Ev(ptr noundef nonnull align 8 dereferenceable(336) %mXMLElemStart) #6
  %mXMLPI = getelementptr inbounds %"class.icu_75::UXMLParser", ptr %this1, i32 0, i32 5
  call void @_ZN6icu_7512RegexMatcherD1Ev(ptr noundef nonnull align 8 dereferenceable(336) %mXMLPI) #6
  %mXMLDoctype = getelementptr inbounds %"class.icu_75::UXMLParser", ptr %this1, i32 0, i32 4
  call void @_ZN6icu_7512RegexMatcherD1Ev(ptr noundef nonnull align 8 dereferenceable(336) %mXMLDoctype) #6
  %mXMLSP = getelementptr inbounds %"class.icu_75::UXMLParser", ptr %this1, i32 0, i32 3
  call void @_ZN6icu_7512RegexMatcherD1Ev(ptr noundef nonnull align 8 dereferenceable(336) %mXMLSP) #6
  %mXMLComment = getelementptr inbounds %"class.icu_75::UXMLParser", ptr %this1, i32 0, i32 2
  call void @_ZN6icu_7512RegexMatcherD1Ev(ptr noundef nonnull align 8 dereferenceable(336) %mXMLComment) #6
  %mXMLDecl = getelementptr inbounds %"class.icu_75::UXMLParser", ptr %this1, i32 0, i32 1
  call void @_ZN6icu_7512RegexMatcherD1Ev(ptr noundef nonnull align 8 dereferenceable(336) %mXMLDecl) #6
  call void @_ZN6icu_757UObjectD2Ev(ptr noundef nonnull align 8 dereferenceable(8) %this1) #6
  ret void
}