; Function Attrs: mustprogress nounwind uwtable
define void @_ZN6icu_7510UXMLParserD2Ev(ptr noundef nonnull align 8 dereferenceable(4576) %this) unnamed_addr #4 align 2 personality ptr @__gxx_personality_v0 {
entry:
  store ptr getelementptr inbounds ({ [5 x ptr] }, ptr @_ZTVN6icu_7510UXMLParserE, i64 0, i32 0, i64 2), ptr %this, align 8
  %fOneLF = getelementptr inbounds i8, ptr %this, i64 4512
  tail call void @_ZN6icu_7513UnicodeStringD1Ev(ptr noundef nonnull align 8 dereferenceable(64) %fOneLF) #11
  %fElementStack = getelementptr inbounds i8, ptr %this, i64 4464
  tail call void @_ZN6icu_756UStackD1Ev(ptr noundef nonnull align 8 dereferenceable(40) %fElementStack) #11
  %fNames = getelementptr inbounds i8, ptr %this, i64 4376
  %0 = load ptr, ptr %fNames, align 8
  %cmp.not.i = icmp eq ptr %0, null
  br i1 %cmp.not.i, label %_ZN6icu_759HashtableD2Ev.exit, label %if.then.i

if.then.i:                                        ; preds = %entry
  invoke void @uhash_close_75(ptr noundef nonnull %0)
          to label %_ZN6icu_759HashtableD2Ev.exit unwind label %terminate.lpad.i

terminate.lpad.i:                                 ; preds = %if.then.i
  %1 = landingpad { ptr, i32 }
          catch ptr null
  %2 = extractvalue { ptr, i32 } %1, 0
  tail call void @__clang_call_terminate(ptr %2) #12
  unreachable

_ZN6icu_759HashtableD2Ev.exit:                    ; preds = %entry, %if.then.i
  %mAmps = getelementptr inbounds i8, ptr %this, i64 4040
  tail call void @_ZN6icu_7512RegexMatcherD1Ev(ptr noundef nonnull align 8 dereferenceable(336) %mAmps) #11
  %mNewLineNormalizer = getelementptr inbounds i8, ptr %this, i64 3704
  tail call void @_ZN6icu_7512RegexMatcherD1Ev(ptr noundef nonnull align 8 dereferenceable(336) %mNewLineNormalizer) #11
  %mAttrNormalizer = getelementptr inbounds i8, ptr %this, i64 3368
  tail call void @_ZN6icu_7512RegexMatcherD1Ev(ptr noundef nonnull align 8 dereferenceable(336) %mAttrNormalizer) #11
  %mAttrValue = getelementptr inbounds i8, ptr %this, i64 3032
  tail call void @_ZN6icu_7512RegexMatcherD1Ev(ptr noundef nonnull align 8 dereferenceable(336) %mAttrValue) #11
  %mXMLCharData = getelementptr inbounds i8, ptr %this, i64 2696
  tail call void @_ZN6icu_7512RegexMatcherD1Ev(ptr noundef nonnull align 8 dereferenceable(336) %mXMLCharData) #11
  %mXMLElemEmpty = getelementptr inbounds i8, ptr %this, i64 2360
  tail call void @_ZN6icu_7512RegexMatcherD1Ev(ptr noundef nonnull align 8 dereferenceable(336) %mXMLElemEmpty) #11
  %mXMLElemEnd = getelementptr inbounds i8, ptr %this, i64 2024
  tail call void @_ZN6icu_7512RegexMatcherD1Ev(ptr noundef nonnull align 8 dereferenceable(336) %mXMLElemEnd) #11
  %mXMLElemStart = getelementptr inbounds i8, ptr %this, i64 1688
  tail call void @_ZN6icu_7512RegexMatcherD1Ev(ptr noundef nonnull align 8 dereferenceable(336) %mXMLElemStart) #11
  %mXMLPI = getelementptr inbounds i8, ptr %this, i64 1352
  tail call void @_ZN6icu_7512RegexMatcherD1Ev(ptr noundef nonnull align 8 dereferenceable(336) %mXMLPI) #11
  %mXMLDoctype = getelementptr inbounds i8, ptr %this, i64 1016
  tail call void @_ZN6icu_7512RegexMatcherD1Ev(ptr noundef nonnull align 8 dereferenceable(336) %mXMLDoctype) #11
  %mXMLSP = getelementptr inbounds i8, ptr %this, i64 680
  tail call void @_ZN6icu_7512RegexMatcherD1Ev(ptr noundef nonnull align 8 dereferenceable(336) %mXMLSP) #11
  %mXMLComment = getelementptr inbounds i8, ptr %this, i64 344
  tail call void @_ZN6icu_7512RegexMatcherD1Ev(ptr noundef nonnull align 8 dereferenceable(336) %mXMLComment) #11
  %mXMLDecl = getelementptr inbounds i8, ptr %this, i64 8
  tail call void @_ZN6icu_7512RegexMatcherD1Ev(ptr noundef nonnull align 8 dereferenceable(336) %mXMLDecl) #11
  tail call void @_ZN6icu_757UObjectD2Ev(ptr noundef nonnull align 8 dereferenceable(8) %this) #11
  ret void
}